target datalayout = "e-m:e-p270:32:32-p271:32:32-p272:64:64-i64:64-i128:128-f80:128-n8:16:32:64-S128"
target triple = "x86_64-pc-linux-gnu"

%struct.MPVEncContext = type { %struct.MpegEncContext, %struct.PutBitContext, i32, i32, ptr, i32, i32, i32, i32, i32, i32, i32, i32, ptr, ptr, %struct.FDCTDSPContext, %struct.MpegvideoEncDSPContext, %struct.PixblockDSPContext, %struct.MotionEstContext, i32, i32, ptr, ptr, ptr, ptr, ptr, ptr, [2 x [2 x [2 x ptr]]], [2 x ptr], [2 x [2 x ptr]], ptr, ptr, ptr, ptr, [3 x i64], i32, i32, i32, i32, i32, ptr, ptr, ptr, ptr, ptr, ptr, ptr, [12 x i32], ptr, ptr, ptr, ptr, ptr, ptr, ptr, ptr, [2 x i32], ptr, i32, i32, i32, i32, i32, i32, i32, i32, i32, i32, ptr, ptr, i32, i32, %struct.PutBitContext, %struct.PutBitContext, i32, i32, i32, i32, ptr, ptr, ptr, [2 x ptr], [2 x ptr], [2 x ptr], [2 x ptr], ptr, i32 }
%struct.MpegEncContext = type { ptr, i32, i32, i32, [12 x i32], i32, %struct.ScanTable, %struct.ScanTable, [64 x i8], [64 x i8], ptr, ptr, i32, i32, i32, i32, i32, i32, i32, i32, i32, i32, i32, i32, i32, i32, i32, i32, i32, i32, i32, i32, i64, i64, ptr, %struct.BufferPoolContext, i32, i32, %union.anon.0, i32, %struct.MPVWorkPicture, %struct.MPVWorkPicture, %struct.MPVWorkPicture, i32, [3 x i32], ptr, [3 x ptr], ptr, ptr, ptr, ptr, ptr, ptr, [3 x ptr], i32, ptr, ptr, ptr, ptr, %struct.ScratchpadContext, i32, i32, i32, i32, i32, i32, %struct.BlockDSPContext, %struct.H264ChromaContext, %struct.HpelDSPContext, %struct.IDCTDSPContext, %struct.QpelDSPContext, %struct.VideoDSPContext, %struct.H263DSPContext, ptr, [2 x [2 x ptr]], i32, i32, [2 x [4 x [2 x i32]]], [2 x [2 x i32]], [2 x [2 x [2 x i32]]], [2 x [64 x i16]], i32, i32, i32, i32, i32, [6 x i32], [6 x i32], [3 x ptr], ptr, [64 x i16], [64 x i16], [64 x i16], [64 x i16], i32, i32, %struct.GetBitContext, i32, i32, i32, i32, i32, i32, i32, i32, i32, i32, i32, i32, i32, i32, i32, i64, i64, i16, i16, i16, i16, i32, i32, i32, i32, i32, i32, i32, i32, i32, [3 x i32], i32, i32, i32, i32, i32, i32, %struct.GetBitContext, i32, [2 x [2 x i32]], i32, i32, i32, i32, i32, i32, i32, i32, i32, i32, i32, i32, i32, i32, [2 x i32], i32, i32, ptr, ptr, ptr, ptr, ptr, i32, i32, %struct.ERContext }
%struct.ScanTable = type { ptr, [64 x i8], [64 x i8] }
%struct.BufferPoolContext = type { ptr, ptr, ptr, ptr, ptr, i32, i32, i32 }
%union.anon.0 = type { [32 x ptr] }
%struct.MPVWorkPicture = type { [3 x ptr], [3 x i64], ptr, ptr, [2 x ptr], ptr, ptr, [2 x ptr], i32 }
%struct.ScratchpadContext = type { ptr, ptr, %union.anon.1, i32 }
%union.anon.1 = type { ptr }
%struct.BlockDSPContext = type { ptr, ptr, [2 x ptr] }
%struct.H264ChromaContext = type { [4 x ptr], [4 x ptr] }
%struct.HpelDSPContext = type { [4 x [4 x ptr]], [4 x [4 x ptr]], [4 x [4 x ptr]], [4 x ptr] }
%struct.IDCTDSPContext = type { ptr, ptr, ptr, ptr, ptr, ptr, [64 x i8], i32, i32 }
%struct.QpelDSPContext = type { [2 x [16 x ptr]], [2 x [16 x ptr]], [2 x [16 x ptr]] }
%struct.VideoDSPContext = type { ptr, ptr }
%struct.H263DSPContext = type { ptr, ptr }
%struct.GetBitContext = type { ptr, ptr, i32, i32, i32 }
%struct.ERContext = type { ptr, ptr, i32, ptr, i32, i32, i32, i64, i64, i32, i32, ptr, ptr, [3 x ptr], ptr, ptr, [2 x [4 x [2 x i32]]], %struct.ERPicture, %struct.ERPicture, %struct.ERPicture, [2 x ptr], [2 x ptr], i16, i16, i32, i32, ptr, ptr }
%struct.ERPicture = type { ptr, ptr, ptr, [2 x ptr], [2 x ptr], ptr, i32 }
%struct.FDCTDSPContext = type { ptr, ptr }
%struct.MpegvideoEncDSPContext = type { ptr, ptr, ptr, ptr, [4 x ptr], ptr }
%struct.PixblockDSPContext = type { ptr, ptr, ptr, ptr }
%struct.MotionEstContext = type { ptr, i32, i32, [4 x [2 x i32]], [4 x [2 x i32]], ptr, ptr, i32, i32, i32, i32, i32, i32, i32, i32, i32, i32, i32, i32, i32, i32, i32, i32, [4 x [4 x ptr]], [4 x [4 x ptr]], i32, i32, i64, i64, i32, [6 x ptr], [6 x ptr], [6 x ptr], [6 x ptr], [2 x [4 x ptr]], ptr, ptr, ptr, ptr, ptr, ptr, ptr, ptr, [64 x i32], [64 x i32] }
%struct.PutBitContext = type { i32, i32, ptr, ptr, ptr }
%struct.AVRational = type { i32, i32 }
%struct.AVChannelLayout = type { i32, i32, %union.anon.2, ptr }
%union.anon.2 = type { i64 }
%struct.AVFrame = type { [8 x ptr], [8 x i32], ptr, i32, i32, i32, i32, i32, %struct.AVRational, i64, i64, %struct.AVRational, i32, ptr, i32, i32, [8 x ptr], ptr, i32, ptr, i32, i32, i32, i32, i32, i32, i32, i64, ptr, i32, ptr, ptr, i64, i64, i64, i64, ptr, %struct.AVChannelLayout, i64 }

; Function Attrs: nounwind uwtable
define internal i32 @mb_var_thread(ptr noundef %0, ptr noundef %1) #1 {
  %3 = alloca ptr, align 8
  %4 = alloca ptr, align 8
  %5 = alloca ptr, align 8
  %6 = alloca i32, align 4
  %7 = alloca i32, align 4
  %8 = alloca i32, align 4
  %9 = alloca i32, align 4
  %10 = alloca i32, align 4
  %11 = alloca ptr, align 8
  %12 = alloca i32, align 4
  %13 = alloca i32, align 4
  store ptr %0, ptr %3, align 8, !tbaa !125
  store ptr %1, ptr %4, align 8, !tbaa !259
  call void @llvm.lifetime.start.p0(i64 8, ptr %5) #14
  %14 = load ptr, ptr %4, align 8, !tbaa !259
  %15 = load ptr, ptr %14, align 8, !tbaa !259
  store ptr %15, ptr %5, align 8, !tbaa !4
  call void @llvm.lifetime.start.p0(i64 4, ptr %6) #14
  %16 = load ptr, ptr %5, align 8, !tbaa !4
  %17 = getelementptr inbounds nuw %struct.MPVEncContext, ptr %16, i32 0, i32 0
  %18 = getelementptr inbounds nuw %struct.MpegEncContext, ptr %17, i32 0, i32 36
  %19 = load i32, ptr %18, align 8, !tbaa !378
  store i32 %19, ptr %6, align 4, !tbaa !13
  br label %20

20:                                               ; preds = %130, %2
  %21 = load i32, ptr %6, align 4, !tbaa !13
  %22 = load ptr, ptr %5, align 8, !tbaa !4
  %23 = getelementptr inbounds nuw %struct.MPVEncContext, ptr %22, i32 0, i32 0
  %24 = getelementptr inbounds nuw %struct.MpegEncContext, ptr %23, i32 0, i32 37
  %25 = load i32, ptr %24, align 4, !tbaa !379
  %26 = icmp slt i32 %21, %25
  br i1 %26, label %28, label %27

27:                                               ; preds = %20
  store i32 2, ptr %7, align 4
  call void @llvm.lifetime.end.p0(i64 4, ptr %6) #14
  br label %133

28:                                               ; preds = %20
  call void @llvm.lifetime.start.p0(i64 4, ptr %8) #14
  store i32 0, ptr %8, align 4, !tbaa !13
  br label %29

29:                                               ; preds = %126, %28
  %30 = load i32, ptr %8, align 4, !tbaa !13
  %31 = load ptr, ptr %5, align 8, !tbaa !4
  %32 = getelementptr inbounds nuw %struct.MPVEncContext, ptr %31, i32 0, i32 0
  %33 = getelementptr inbounds nuw %struct.MpegEncContext, ptr %32, i32 0, i32 25
  %34 = load i32, ptr %33, align 4, !tbaa !301
  %35 = icmp slt i32 %30, %34
  br i1 %35, label %37, label %36

36:                                               ; preds = %29
  store i32 5, ptr %7, align 4
  call void @llvm.lifetime.end.p0(i64 4, ptr %8) #14
  br label %129

37:                                               ; preds = %29
  call void @llvm.lifetime.start.p0(i64 4, ptr %9) #14
  %38 = load i32, ptr %8, align 4, !tbaa !13
  %39 = mul nsw i32 %38, 16
  store i32 %39, ptr %9, align 4, !tbaa !13
  call void @llvm.lifetime.start.p0(i64 4, ptr %10) #14
  %40 = load i32, ptr %6, align 4, !tbaa !13
  %41 = mul nsw i32 %40, 16
  store i32 %41, ptr %10, align 4, !tbaa !13
  call void @llvm.lifetime.start.p0(i64 8, ptr %11) #14
  %42 = load ptr, ptr %5, align 8, !tbaa !4
  %43 = getelementptr inbounds nuw %struct.MPVEncContext, ptr %42, i32 0, i32 13
  %44 = load ptr, ptr %43, align 8, !tbaa !214
  %45 = getelementptr inbounds nuw %struct.AVFrame, ptr %44, i32 0, i32 0
  %46 = getelementptr inbounds [8 x ptr], ptr %45, i64 0, i64 0
  %47 = load ptr, ptr %46, align 8, !tbaa !86
  %48 = load i32, ptr %10, align 4, !tbaa !13
  %49 = sext i32 %48 to i64
  %50 = load ptr, ptr %5, align 8, !tbaa !4
  %51 = getelementptr inbounds nuw %struct.MPVEncContext, ptr %50, i32 0, i32 0
  %52 = getelementptr inbounds nuw %struct.MpegEncContext, ptr %51, i32 0, i32 32
  %53 = load i64, ptr %52, align 8, !tbaa !361
  %54 = mul nsw i64 %49, %53
  %55 = getelementptr inbounds i8, ptr %47, i64 %54
  %56 = load i32, ptr %9, align 4, !tbaa !13
  %57 = sext i32 %56 to i64
  %58 = getelementptr inbounds i8, ptr %55, i64 %57
  store ptr %58, ptr %11, align 8, !tbaa !86
  call void @llvm.lifetime.start.p0(i64 4, ptr %12) #14
  call void @llvm.lifetime.start.p0(i64 4, ptr %13) #14
  %59 = load ptr, ptr %5, align 8, !tbaa !4
  %60 = getelementptr inbounds nuw %struct.MPVEncContext, ptr %59, i32 0, i32 16
  %61 = getelementptr inbounds nuw %struct.MpegvideoEncDSPContext, ptr %60, i32 0, i32 2
  %62 = load ptr, ptr %61, align 8, !tbaa !443
  %63 = load ptr, ptr %11, align 8, !tbaa !86
  %64 = load ptr, ptr %5, align 8, !tbaa !4
  %65 = getelementptr inbounds nuw %struct.MPVEncContext, ptr %64, i32 0, i32 0
  %66 = getelementptr inbounds nuw %struct.MpegEncContext, ptr %65, i32 0, i32 32
  %67 = load i64, ptr %66, align 8, !tbaa !361
  %68 = call i32 %62(ptr noundef %63, i64 noundef %67)
  store i32 %68, ptr %13, align 4, !tbaa !13
  %69 = load ptr, ptr %5, align 8, !tbaa !4
  %70 = getelementptr inbounds nuw %struct.MPVEncContext, ptr %69, i32 0, i32 16
  %71 = getelementptr inbounds nuw %struct.MpegvideoEncDSPContext, ptr %70, i32 0, i32 3
  %72 = load ptr, ptr %71, align 8, !tbaa !469
  %73 = load ptr, ptr %11, align 8, !tbaa !86
  %74 = load ptr, ptr %5, align 8, !tbaa !4
  %75 = getelementptr inbounds nuw %struct.MPVEncContext, ptr %74, i32 0, i32 0
  %76 = getelementptr inbounds nuw %struct.MpegEncContext, ptr %75, i32 0, i32 32
  %77 = load i64, ptr %76, align 8, !tbaa !361
  %78 = call i32 %72(ptr noundef %73, i64 noundef %77)
  %79 = load i32, ptr %13, align 4, !tbaa !13
  %80 = load i32, ptr %13, align 4, !tbaa !13
  %81 = mul i32 %79, %80
  %82 = lshr i32 %81, 8
  %83 = sub i32 %78, %82
  %84 = add i32 %83, 500
  %85 = add i32 %84, 128
  %86 = lshr i32 %85, 8
  store i32 %86, ptr %12, align 4, !tbaa !13
  %87 = load i32, ptr %12, align 4, !tbaa !13
  %88 = trunc i32 %87 to i16
  %89 = load ptr, ptr %5, align 8, !tbaa !4
  %90 = getelementptr inbounds nuw %struct.MPVEncContext, ptr %89, i32 0, i32 31
  %91 = load ptr, ptr %90, align 8, !tbaa !280
  %92 = load ptr, ptr %5, align 8, !tbaa !4
  %93 = getelementptr inbounds nuw %struct.MPVEncContext, ptr %92, i32 0, i32 0
  %94 = getelementptr inbounds nuw %struct.MpegEncContext, ptr %93, i32 0, i32 27
  %95 = load i32, ptr %94, align 4, !tbaa !274
  %96 = load i32, ptr %6, align 4, !tbaa !13
  %97 = mul nsw i32 %95, %96
  %98 = load i32, ptr %8, align 4, !tbaa !13
  %99 = add nsw i32 %97, %98
  %100 = sext i32 %99 to i64
  %101 = getelementptr inbounds i16, ptr %91, i64 %100
  store i16 %88, ptr %101, align 2, !tbaa !54
  %102 = load i32, ptr %13, align 4, !tbaa !13
  %103 = add nsw i32 %102, 128
  %104 = ashr i32 %103, 8
  %105 = trunc i32 %104 to i8
  %106 = load ptr, ptr %5, align 8, !tbaa !4
  %107 = getelementptr inbounds nuw %struct.MPVEncContext, ptr %106, i32 0, i32 33
  %108 = load ptr, ptr %107, align 8, !tbaa !281
  %109 = load ptr, ptr %5, align 8, !tbaa !4
  %110 = getelementptr inbounds nuw %struct.MPVEncContext, ptr %109, i32 0, i32 0
  %111 = getelementptr inbounds nuw %struct.MpegEncContext, ptr %110, i32 0, i32 27
  %112 = load i32, ptr %111, align 4, !tbaa !274
  %113 = load i32, ptr %6, align 4, !tbaa !13
  %114 = mul nsw i32 %112, %113
  %115 = load i32, ptr %8, align 4, !tbaa !13
  %116 = add nsw i32 %114, %115
  %117 = sext i32 %116 to i64
  %118 = getelementptr inbounds i8, ptr %108, i64 %117
  store i8 %105, ptr %118, align 1, !tbaa !52
  %119 = load i32, ptr %12, align 4, !tbaa !13
  %120 = sext i32 %119 to i64
  %121 = load ptr, ptr %5, align 8, !tbaa !4
  %122 = getelementptr inbounds nuw %struct.MPVEncContext, ptr %121, i32 0, i32 18
  %123 = getelementptr inbounds nuw %struct.MotionEstContext, ptr %122, i32 0, i32 28
  %124 = load i64, ptr %123, align 8, !tbaa !390
  %125 = add nsw i64 %124, %120
  store i64 %125, ptr %123, align 8, !tbaa !390
  call void @llvm.lifetime.end.p0(i64 4, ptr %13) #14
  call void @llvm.lifetime.end.p0(i64 4, ptr %12) #14
  call void @llvm.lifetime.end.p0(i64 8, ptr %11) #14
  call void @llvm.lifetime.end.p0(i64 4, ptr %10) #14
  call void @llvm.lifetime.end.p0(i64 4, ptr %9) #14
  br label %126

126:                                              ; preds = %37
  %127 = load i32, ptr %8, align 4, !tbaa !13
  %128 = add nsw i32 %127, 1
  store i32 %128, ptr %8, align 4, !tbaa !13
  br label %29, !llvm.loop !470

129:                                              ; preds = %36
  br label %130

130:                                              ; preds = %129
  %131 = load i32, ptr %6, align 4, !tbaa !13
  %132 = add nsw i32 %131, 1
  store i32 %132, ptr %6, align 4, !tbaa !13
  br label %20, !llvm.loop !471

133:                                              ; preds = %27
  store i32 1, ptr %7, align 4
  call void @llvm.lifetime.end.p0(i64 8, ptr %5) #14
  ret i32 0
}