; Function Attrs: nounwind uwtable
define internal noundef i32 @mb_var_thread(ptr readnone captures(none) %0, ptr noundef readonly captures(none) %1) #1 {
  %3 = load ptr, ptr %1, align 8, !tbaa !234
  %4 = getelementptr inbounds nuw i8, ptr %3, i64 648
  %5 = load i32, ptr %4, align 8, !tbaa !353
  %6 = getelementptr inbounds nuw i8, ptr %3, i64 652
  %7 = load i32, ptr %6, align 4, !tbaa !354
  %8 = icmp slt i32 %5, %7
  br i1 %8, label %.preheader.lr.ph, label %._crit_edge36

.preheader.lr.ph:                                 ; preds = %2
  %9 = getelementptr inbounds nuw i8, ptr %3, i64 540
  %10 = getelementptr inbounds nuw i8, ptr %3, i64 4888
  %11 = getelementptr inbounds nuw i8, ptr %3, i64 568
  %12 = getelementptr inbounds nuw i8, ptr %3, i64 4936
  %13 = getelementptr inbounds nuw i8, ptr %3, i64 4944
  %14 = getelementptr inbounds nuw i8, ptr %3, i64 6480
  %15 = getelementptr inbounds nuw i8, ptr %3, i64 548
  %16 = getelementptr inbounds nuw i8, ptr %3, i64 6496
  %17 = getelementptr inbounds nuw i8, ptr %3, i64 5456
  %18 = load i32, ptr %9, align 4, !tbaa !297
  %19 = icmp sgt i32 %18, 0
  br i1 %19, label %.preheader.preheader, label %._crit_edge36

.preheader.preheader:                             ; preds = %.preheader.lr.ph
  %20 = sext i32 %5 to i64
  br label %.preheader

.preheader:                                       ; preds = %.preheader.preheader, %._crit_edge
  %21 = phi i32 [ %7, %.preheader.preheader ], [ %26, %._crit_edge ]
  %22 = phi i32 [ %18, %.preheader.preheader ], [ %27, %._crit_edge ]
  %indvars.iv39 = phi i64 [ %20, %.preheader.preheader ], [ %indvars.iv.next40, %._crit_edge ]
  %23 = icmp sgt i32 %22, 0
  br i1 %23, label %.lr.ph, label %._crit_edge

.lr.ph:                                           ; preds = %.preheader
  %24 = shl nsw i64 %indvars.iv39, 4
  %25 = trunc nsw i64 %indvars.iv39 to i32
  br label %30

._crit_edge36:                                    ; preds = %._crit_edge, %.preheader.lr.ph, %2
  ret i32 0

._crit_edge.loopexit:                             ; preds = %30
  %.pre = load i32, ptr %6, align 4, !tbaa !354
  br label %._crit_edge

._crit_edge:                                      ; preds = %._crit_edge.loopexit, %.preheader
  %26 = phi i32 [ %.pre, %._crit_edge.loopexit ], [ %21, %.preheader ]
  %27 = phi i32 [ %63, %._crit_edge.loopexit ], [ %22, %.preheader ]
  %indvars.iv.next40 = add nsw i64 %indvars.iv39, 1
  %28 = sext i32 %26 to i64
  %29 = icmp slt i64 %indvars.iv.next40, %28
  br i1 %29, label %.preheader, label %._crit_edge36, !llvm.loop !448

30:                                               ; preds = %.lr.ph, %30
  %indvars.iv = phi i64 [ 0, %.lr.ph ], [ %indvars.iv.next, %30 ]
  %31 = shl nsw i64 %indvars.iv, 4
  %32 = load ptr, ptr %10, align 8, !tbaa !202
  %33 = load ptr, ptr %32, align 8, !tbaa !98
  %34 = load i64, ptr %11, align 8, !tbaa !279
  %35 = mul nsw i64 %34, %24
  %36 = getelementptr inbounds i8, ptr %33, i64 %35
  %37 = getelementptr inbounds nuw i8, ptr %36, i64 %31
  %38 = load ptr, ptr %12, align 8, !tbaa !312
  %39 = tail call i32 %38(ptr noundef %37, i64 noundef %34) #16
  %40 = load ptr, ptr %13, align 8, !tbaa !449
  %41 = load i64, ptr %11, align 8, !tbaa !279
  %42 = tail call i32 %40(ptr noundef %37, i64 noundef %41) #16
  %43 = mul i32 %39, %39
  %44 = lshr i32 %43, 8
  %reass.sub = sub i32 %42, %44
  %45 = add i32 %reass.sub, 628
  %46 = lshr i32 %45, 8
  %47 = trunc i32 %46 to i16
  %48 = load ptr, ptr %14, align 8, !tbaa !259
  %49 = load i32, ptr %15, align 4, !tbaa !253
  %50 = mul nsw i32 %49, %25
  %51 = trunc nuw nsw i64 %indvars.iv to i32
  %52 = add nsw i32 %50, %51
  %53 = sext i32 %52 to i64
  %54 = getelementptr inbounds i16, ptr %48, i64 %53
  store i16 %47, ptr %54, align 2, !tbaa !52
  %55 = add nsw i32 %39, 128
  %56 = lshr i32 %55, 8
  %57 = trunc i32 %56 to i8
  %58 = load ptr, ptr %16, align 8, !tbaa !260
  %59 = getelementptr inbounds i8, ptr %58, i64 %53
  store i8 %57, ptr %59, align 1, !tbaa !46
  %60 = zext nneg i32 %46 to i64
  %61 = load i64, ptr %17, align 8, !tbaa !364
  %62 = add nsw i64 %61, %60
  store i64 %62, ptr %17, align 8, !tbaa !364
  %indvars.iv.next = add nuw nsw i64 %indvars.iv, 1
  %63 = load i32, ptr %9, align 4, !tbaa !297
  %64 = sext i32 %63 to i64
  %65 = icmp slt i64 %indvars.iv.next, %64
  br i1 %65, label %30, label %._crit_edge.loopexit, !llvm.loop !450
}